; ModuleID = '44/1103.c'
source_filename = "44/1103.c"
target datalayout = "e-m:e-p270:32:32-p271:32:32-p272:64:64-i64:64-f80:128-n8:16:32:64-S128"
target triple = "x86_64-pc-linux-gnu"

@.str = private unnamed_addr constant [3 x i8] c"%d\00", align 1
@.str.1 = private unnamed_addr constant [4 x i8] c"%d\0A\00", align 1

; Function Attrs: noinline nounwind uwtable
define dso_local i32 @main() #0 {
  %1 = alloca i32, align 4
  %2 = alloca i32, align 4
  %3 = alloca i32, align 4
  store i32 0, i32* %1, align 4
  store i32 0, i32* %2, align 4
  br label %4

4:                                                ; preds = %12, %0
  %5 = load i32, i32* %2, align 4
  %6 = icmp slt i32 %5, 6
  br i1 %6, label %7, label %15

7:                                                ; preds = %4
  %8 = call i32 (i8*, ...) @__isoc99_scanf(i8* getelementptr inbounds ([3 x i8], [3 x i8]* @.str, i64 0, i64 0), i32* %3)
  %9 = load i32, i32* %3, align 4
  %10 = call i32 @f(i32 %9)
  %11 = call i32 (i8*, ...) @printf(i8* getelementptr inbounds ([4 x i8], [4 x i8]* @.str.1, i64 0, i64 0), i32 %10)
  br label %12

12:                                               ; preds = %7
  %13 = load i32, i32* %2, align 4
  %14 = add nsw i32 %13, 1
  store i32 %14, i32* %2, align 4
  br label %4

15:                                               ; preds = %4
  ret i32 0
}

declare dso_local i32 @__isoc99_scanf(i8*, ...) #1

declare dso_local i32 @printf(i8*, ...) #1

; Function Attrs: noinline nounwind uwtable
define dso_local i32 @f(i32 %0) #0 {
  %2 = alloca i32, align 4
  %3 = alloca i32, align 4
  %4 = alloca [10000 x i32], align 16
  %5 = alloca [10000 x i32], align 16
  %6 = alloca i32, align 4
  %7 = alloca i32, align 4
  %8 = alloca i32, align 4
  store i32 %0, i32* %3, align 4
  %9 = load i32, i32* %3, align 4
  %10 = call i32 @abs(i32 %9) #4
  %11 = getelementptr inbounds [10000 x i32], [10000 x i32]* %5, i64 0, i64 0
  store i32 %10, i32* %11, align 16
  %12 = getelementptr inbounds [10000 x i32], [10000 x i32]* %5, i64 0, i64 0
  %13 = load i32, i32* %12, align 16
  %14 = icmp ne i32 %13, 0
  br i1 %14, label %15, label %77

15:                                               ; preds = %1
  store i32 0, i32* %7, align 4
  br label %16

16:                                               ; preds = %48, %15
  %17 = load i32, i32* %7, align 4
  %18 = sext i32 %17 to i64
  %19 = getelementptr inbounds [10000 x i32], [10000 x i32]* %5, i64 0, i64 %18
  %20 = load i32, i32* %19, align 4
  %21 = srem i32 %20, 10
  %22 = load i32, i32* %7, align 4
  %23 = sext i32 %22 to i64
  %24 = getelementptr inbounds [10000 x i32], [10000 x i32]* %4, i64 0, i64 %23
  store i32 %21, i32* %24, align 4
  %25 = load i32, i32* %7, align 4
  %26 = sext i32 %25 to i64
  %27 = getelementptr inbounds [10000 x i32], [10000 x i32]* %5, i64 0, i64 %26
  %28 = load i32, i32* %27, align 4
  %29 = sdiv i32 %28, 10
  %30 = load i32, i32* %7, align 4
  %31 = add nsw i32 %30, 1
  %32 = sext i32 %31 to i64
  %33 = getelementptr inbounds [10000 x i32], [10000 x i32]* %5, i64 0, i64 %32
  store i32 %29, i32* %33, align 4
  %34 = load i32, i32* %7, align 4
  %35 = sext i32 %34 to i64
  %36 = getelementptr inbounds [10000 x i32], [10000 x i32]* %4, i64 0, i64 %35
  %37 = load i32, i32* %36, align 4
  %38 = icmp eq i32 %37, 0
  br i1 %38, label %39, label %47

39:                                               ; preds = %16
  %40 = load i32, i32* %7, align 4
  %41 = add nsw i32 %40, 1
  %42 = sext i32 %41 to i64
  %43 = getelementptr inbounds [10000 x i32], [10000 x i32]* %5, i64 0, i64 %42
  %44 = load i32, i32* %43, align 4
  %45 = icmp eq i32 %44, 0
  br i1 %45, label %46, label %47

46:                                               ; preds = %39
  br label %51

47:                                               ; preds = %39, %16
  br label %48

48:                                               ; preds = %47
  %49 = load i32, i32* %7, align 4
  %50 = add nsw i32 %49, 1
  store i32 %50, i32* %7, align 4
  br label %16

51:                                               ; preds = %46
  store i32 0, i32* %6, align 4
  %52 = load i32, i32* %7, align 4
  store i32 %52, i32* %8, align 4
  br label %53

53:                                               ; preds = %73, %51
  %54 = load i32, i32* %8, align 4
  %55 = icmp sge i32 %54, 0
  br i1 %55, label %56, label %76

56:                                               ; preds = %53
  %57 = load i32, i32* %6, align 4
  %58 = sitofp i32 %57 to double
  %59 = load i32, i32* %8, align 4
  %60 = sext i32 %59 to i64
  %61 = getelementptr inbounds [10000 x i32], [10000 x i32]* %4, i64 0, i64 %60
  %62 = load i32, i32* %61, align 4
  %63 = sitofp i32 %62 to double
  %64 = load i32, i32* %7, align 4
  %65 = load i32, i32* %8, align 4
  %66 = sub nsw i32 %64, %65
  %67 = sub nsw i32 %66, 1
  %68 = sitofp i32 %67 to double
  %69 = call double @pow(double 1.000000e+01, double %68) #5
  %70 = fmul double %63, %69
  %71 = fadd double %58, %70
  %72 = fptosi double %71 to i32
  store i32 %72, i32* %6, align 4
  br label %73

73:                                               ; preds = %56
  %74 = load i32, i32* %8, align 4
  %75 = add nsw i32 %74, -1
  store i32 %75, i32* %8, align 4
  br label %53

76:                                               ; preds = %53
  br label %77

77:                                               ; preds = %76, %1
  %78 = load i32, i32* %3, align 4
  %79 = icmp sgt i32 %78, 0
  br i1 %79, label %80, label %82

80:                                               ; preds = %77
  %81 = load i32, i32* %6, align 4
  store i32 %81, i32* %2, align 4
  br label %90

82:                                               ; preds = %77
  %83 = load i32, i32* %3, align 4
  %84 = icmp slt i32 %83, 0
  br i1 %84, label %85, label %88

85:                                               ; preds = %82
  %86 = load i32, i32* %6, align 4
  %87 = sub nsw i32 0, %86
  store i32 %87, i32* %2, align 4
  br label %90

88:                                               ; preds = %82
  store i32 0, i32* %3, align 4
  br i1 false, label %89, label %90

89:                                               ; preds = %88
  store i32 0, i32* %2, align 4
  br label %90

90:                                               ; preds = %80, %85, %89, %88
  %91 = load i32, i32* %2, align 4
  ret i32 %91
}

; Function Attrs: nounwind readnone
declare dso_local i32 @abs(i32) #2

; Function Attrs: nounwind
declare dso_local double @pow(double, double) #3


!llvm.module.flags = !{!0}
!llvm.ident = !{!1}

!0 = !{i32 1, !"wchar_size", i32 4}
!1 = !{!"clang version 10.0.0-4ubuntu1 "}
